target datalayout = "e-m:e-p270:32:32-p271:32:32-p272:64:64-i64:64-i128:128-f80:128-n8:16:32:64-S128"
target triple = "x86_64-pc-linux-gnu"

%struct.SDL_DriverWii_Context = type { ptr, ptr, i64, i32, i32, i8, i32, i8, i8, i8, i8, [22 x i8], i64, i64, i64, i8, [6 x %struct.StickCalibrationData] }
%struct.StickCalibrationData = type { i16, i16, i16, i16 }
%struct.SDL_HIDAPI_Device = type { ptr, ptr, ptr, ptr, i16, i16, i16, ptr, %struct.SDL_GUID, i32, i32, i32, i32, i16, i16, i8, i32, i32, i32, ptr, ptr, ptr, ptr, %struct.SDL_AtomicInt, i32, ptr, i8, i8, i8, ptr, i32, ptr, ptr }
%struct.SDL_GUID = type { [16 x i8] }
%struct.SDL_AtomicInt = type { i32 }

@.str.7 = private unnamed_addr constant [20 x i8] c"Nintendo Wii Remote\00", align 1
@.str.8 = private unnamed_addr constant [33 x i8] c"Nintendo Wii Remote with Nunchuk\00", align 1
@.str.9 = private unnamed_addr constant [44 x i8] c"Nintendo Wii Remote with Classic Controller\00", align 1
@.str.10 = private unnamed_addr constant [30 x i8] c"Nintendo Wii U Pro Controller\00", align 1
@.str.11 = private unnamed_addr constant [43 x i8] c"Nintendo Wii Remote with Unknown Extension\00", align 1

; Function Attrs: nounwind uwtable
define internal void @ActivateMotionPlusWithMode(ptr noundef %0, i8 noundef zeroext %1) #0 {
  %3 = alloca ptr, align 8
  %4 = alloca i8, align 1
  store ptr %0, ptr %3, align 8
  store i8 %1, ptr %4, align 1
  ret void
}

; Function Attrs: nounwind uwtable
define internal i32 @GetExtensionType(i16 noundef zeroext %0) #0 {
  %2 = alloca i32, align 4
  %3 = alloca i16, align 2
  store i16 %0, ptr %3, align 2
  %4 = load i16, ptr %3, align 2
  %5 = zext i16 %4 to i32
  switch i32 %5, label %10 [
    i32 11822, label %6
    i32 0, label %7
    i32 257, label %8
    i32 288, label %9
  ]

6:                                                ; preds = %1
  store i32 128, ptr %2, align 4
  br label %11

7:                                                ; preds = %1
  store i32 129, ptr %2, align 4
  br label %11

8:                                                ; preds = %1
  store i32 130, ptr %2, align 4
  br label %11

9:                                                ; preds = %1
  store i32 131, ptr %2, align 4
  br label %11

10:                                               ; preds = %1
  store i32 0, ptr %2, align 4
  br label %11

11:                                               ; preds = %10, %9, %8, %7, %6
  %12 = load i32, ptr %2, align 4
  ret i32 %12
}

; Function Attrs: nounwind uwtable
define internal zeroext i1 @SendExtensionReset(ptr noundef %0, i1 noundef zeroext %1) #0 {
  %3 = alloca ptr, align 8
  %4 = alloca i8, align 1
  %5 = alloca i8, align 1
  %6 = alloca i8, align 1
  %7 = alloca i8, align 1
  store ptr %0, ptr %3, align 8
  %8 = zext i1 %1 to i8
  store i8 %8, ptr %4, align 1
  call void @llvm.lifetime.start.p0(i64 1, ptr %5) #6
  store i8 1, ptr %5, align 1
  call void @llvm.lifetime.start.p0(i64 1, ptr %6) #6
  store i8 85, ptr %6, align 1
  %9 = load i8, ptr %5, align 1, !range !5, !noundef !6
  %10 = trunc i8 %9 to i1
  br i1 %10, label %11, label %16

11:                                               ; preds = %2
  %12 = load ptr, ptr %3, align 8
  %13 = load i8, ptr %4, align 1, !range !5, !noundef !6
  %14 = trunc i8 %13 to i1
  %15 = call zeroext i1 @WriteRegister(ptr noundef %12, i32 noundef 10748144, ptr noundef %6, i32 noundef 1, i1 noundef zeroext %14)
  br label %16

16:                                               ; preds = %11, %2
  %17 = phi i1 [ false, %2 ], [ %15, %11 ]
  %18 = zext i1 %17 to i8
  store i8 %18, ptr %5, align 1
  call void @llvm.lifetime.end.p0(i64 1, ptr %6) #6
  call void @llvm.lifetime.start.p0(i64 1, ptr %7) #6
  store i8 0, ptr %7, align 1
  %19 = load ptr, ptr %3, align 8
  %20 = load i8, ptr %4, align 1, !range !5, !noundef !6
  %21 = trunc i8 %20 to i1
  %22 = call zeroext i1 @WriteRegister(ptr noundef %19, i32 noundef 10748155, ptr noundef %7, i32 noundef 1, i1 noundef zeroext %21)
  call void @llvm.lifetime.end.p0(i64 1, ptr %7) #6
  %23 = load i8, ptr %5, align 1, !range !5, !noundef !6
  %24 = trunc i8 %23 to i1
  call void @llvm.lifetime.end.p0(i64 1, ptr %5) #6
  ret i1 %24
}

; Function Attrs: nounwind uwtable
define internal zeroext i1 @SendExtensionIdentify(ptr noundef %0, i1 noundef zeroext %1) #0 {
  %3 = alloca ptr, align 8
  %4 = alloca i8, align 1
  store ptr %0, ptr %3, align 8
  %5 = zext i1 %1 to i8
  store i8 %5, ptr %4, align 1
  %6 = load ptr, ptr %3, align 8
  %7 = load i8, ptr %4, align 1, !range !5, !noundef !6
  %8 = trunc i8 %7 to i1
  %9 = call zeroext i1 @ReadRegister(ptr noundef %6, i32 noundef 10748158, i32 noundef 2, i1 noundef zeroext %8)
  ret i1 %9
}

; Function Attrs: nounwind uwtable
define internal void @UpdateDeviceIdentity(ptr noundef %0) #0 {
  %2 = alloca ptr, align 8
  %3 = alloca ptr, align 8
  store ptr %0, ptr %2, align 8
  call void @llvm.lifetime.start.p0(i64 8, ptr %3) #6
  %4 = load ptr, ptr %2, align 8
  %5 = getelementptr inbounds nuw %struct.SDL_HIDAPI_Device, ptr %4, i32 0, i32 20
  %6 = load ptr, ptr %5, align 8
  store ptr %6, ptr %3, align 8
  %7 = load ptr, ptr %3, align 8
  %8 = getelementptr inbounds nuw %struct.SDL_DriverWii_Context, ptr %7, i32 0, i32 4
  %9 = load i32, ptr %8, align 4
  switch i32 %9, label %18 [
    i32 128, label %10
    i32 129, label %12
    i32 130, label %14
    i32 131, label %16
  ]

10:                                               ; preds = %1
  %11 = load ptr, ptr %2, align 8
  call void @HIDAPI_SetDeviceName(ptr noundef %11, ptr noundef @.str.7)
  br label %20

12:                                               ; preds = %1
  %13 = load ptr, ptr %2, align 8
  call void @HIDAPI_SetDeviceName(ptr noundef %13, ptr noundef @.str.8)
  br label %20

14:                                               ; preds = %1
  %15 = load ptr, ptr %2, align 8
  call void @HIDAPI_SetDeviceName(ptr noundef %15, ptr noundef @.str.9)
  br label %20

16:                                               ; preds = %1
  %17 = load ptr, ptr %2, align 8
  call void @HIDAPI_SetDeviceName(ptr noundef %17, ptr noundef @.str.10)
  br label %20

18:                                               ; preds = %1
  %19 = load ptr, ptr %2, align 8
  call void @HIDAPI_SetDeviceName(ptr noundef %19, ptr noundef @.str.11)
  br label %20

20:                                               ; preds = %18, %16, %14, %12, %10
  %21 = load ptr, ptr %3, align 8
  %22 = getelementptr inbounds nuw %struct.SDL_DriverWii_Context, ptr %21, i32 0, i32 4
  %23 = load i32, ptr %22, align 4
  %24 = trunc i32 %23 to i8
  %25 = load ptr, ptr %2, align 8
  %26 = getelementptr inbounds nuw %struct.SDL_HIDAPI_Device, ptr %25, i32 0, i32 8
  %27 = getelementptr inbounds nuw %struct.SDL_GUID, ptr %26, i32 0, i32 0
  %28 = getelementptr inbounds [16 x i8], ptr %27, i64 0, i64 15
  store i8 %24, ptr %28, align 1
  call void @llvm.lifetime.end.p0(i64 8, ptr %3) #6
  ret void
}

; Function Attrs: nounwind uwtable
define internal i32 @ReadExtensionControllerType(ptr noundef %0) #0 {
  %2 = alloca ptr, align 8
  %3 = alloca ptr, align 8
  %4 = alloca i32, align 4
  %5 = alloca i32, align 4
  %6 = alloca i32, align 4
  %7 = alloca i16, align 2
  %8 = alloca i8, align 1
  %9 = alloca i32, align 4
  store ptr %0, ptr %2, align 8
  call void @llvm.lifetime.start.p0(i64 8, ptr %3) #6
  %10 = load ptr, ptr %2, align 8
  %11 = getelementptr inbounds nuw %struct.SDL_HIDAPI_Device, ptr %10, i32 0, i32 20
  %12 = load ptr, ptr %11, align 8
  store ptr %12, ptr %3, align 8
  call void @llvm.lifetime.start.p0(i64 4, ptr %4) #6
  store i32 0, ptr %4, align 4
  call void @llvm.lifetime.start.p0(i64 4, ptr %5) #6
  store i32 20, ptr %5, align 4
  call void @llvm.lifetime.start.p0(i64 4, ptr %6) #6
  store i32 0, ptr %6, align 4
  store i32 0, ptr %6, align 4
  br label %13

13:                                               ; preds = %62, %1
  %14 = load i32, ptr %6, align 4
  %15 = icmp slt i32 %14, 20
  br i1 %15, label %16, label %65

16:                                               ; preds = %13
  call void @llvm.lifetime.start.p0(i64 2, ptr %7) #6
  %17 = load ptr, ptr %3, align 8
  %18 = call zeroext i1 @SendExtensionIdentify(ptr noundef %17, i1 noundef zeroext true)
  br i1 %18, label %19, label %58

19:                                               ; preds = %16
  %20 = load ptr, ptr %3, align 8
  %21 = call zeroext i1 @ParseExtensionIdentifyResponse(ptr noundef %20, ptr noundef %7)
  br i1 %21, label %22, label %58

22:                                               ; preds = %19
  call void @llvm.lifetime.start.p0(i64 1, ptr %8) #6
  store i8 0, ptr %8, align 1
  %23 = load i16, ptr %7, align 2
  %24 = zext i16 %23 to i32
  %25 = and i32 %24, 61695
  %26 = icmp eq i32 %25, 5
  br i1 %26, label %27, label %32

27:                                               ; preds = %22
  %28 = load i16, ptr %7, align 2
  %29 = zext i16 %28 to i32
  %30 = ashr i32 %29, 8
  %31 = trunc i32 %30 to i8
  store i8 %31, ptr %8, align 1
  br label %32

32:                                               ; preds = %27, %22
  %33 = load i8, ptr %8, align 1
  %34 = zext i8 %33 to i32
  %35 = icmp ne i32 %34, 0
  br i1 %35, label %40, label %36

36:                                               ; preds = %32
  %37 = load i16, ptr %7, align 2
  %38 = zext i16 %37 to i32
  %39 = icmp eq i32 %38, 65535
  br i1 %39, label %40, label %49

40:                                               ; preds = %36, %32
  %41 = load ptr, ptr %3, align 8
  %42 = call zeroext i1 @SendExtensionReset(ptr noundef %41, i1 noundef zeroext true)
  %43 = load ptr, ptr %3, align 8
  %44 = call zeroext i1 @SendExtensionIdentify(ptr noundef %43, i1 noundef zeroext true)
  br i1 %44, label %45, label %48

45:                                               ; preds = %40
  %46 = load ptr, ptr %3, align 8
  %47 = call zeroext i1 @ParseExtensionIdentifyResponse(ptr noundef %46, ptr noundef %7)
  br label %48

48:                                               ; preds = %45, %40
  br label %49

49:                                               ; preds = %48, %36
  %50 = load i16, ptr %7, align 2
  %51 = call i32 @GetExtensionType(i16 noundef zeroext %50)
  store i32 %51, ptr %4, align 4
  %52 = load i8, ptr %8, align 1
  %53 = icmp ne i8 %52, 0
  br i1 %53, label %54, label %57

54:                                               ; preds = %49
  %55 = load ptr, ptr %3, align 8
  %56 = load i8, ptr %8, align 1
  call void @ActivateMotionPlusWithMode(ptr noundef %55, i8 noundef zeroext %56)
  br label %57

57:                                               ; preds = %54, %49
  store i32 2, ptr %9, align 4
  call void @llvm.lifetime.end.p0(i64 1, ptr %8) #6
  br label %59

58:                                               ; preds = %19, %16
  store i32 0, ptr %9, align 4
  br label %59

59:                                               ; preds = %58, %57
  call void @llvm.lifetime.end.p0(i64 2, ptr %7) #6
  %60 = load i32, ptr %9, align 4
  switch i32 %60, label %67 [
    i32 0, label %61
    i32 2, label %65
  ]

61:                                               ; preds = %59
  br label %62

62:                                               ; preds = %61
  %63 = load i32, ptr %6, align 4
  %64 = add nsw i32 %63, 1
  store i32 %64, ptr %6, align 4
  br label %13, !llvm.loop !7

65:                                               ; preds = %59, %13
  %66 = load i32, ptr %4, align 4
  store i32 1, ptr %9, align 4
  call void @llvm.lifetime.end.p0(i64 4, ptr %6) #6
  call void @llvm.lifetime.end.p0(i64 4, ptr %5) #6
  call void @llvm.lifetime.end.p0(i64 4, ptr %4) #6
  call void @llvm.lifetime.end.p0(i64 8, ptr %3) #6
  ret i32 %66

67:                                               ; preds = %59
  unreachable
}

; Function Attrs: nounwind uwtable
define internal zeroext i1 @HIDAPI_DriverWii_InitDevice(ptr noundef %0) #0 {
  %2 = alloca i1, align 1
  %3 = alloca ptr, align 8
  %4 = alloca ptr, align 8
  %5 = alloca i32, align 4
  store ptr %0, ptr %3, align 8
  call void @llvm.lifetime.start.p0(i64 8, ptr %4) #6
  %6 = call noalias ptr @SDL_calloc_REAL(i64 noundef 1, i64 noundef 152) #7
  store ptr %6, ptr %4, align 8
  %7 = load ptr, ptr %4, align 8
  %8 = icmp ne ptr %7, null
  br i1 %8, label %10, label %9

9:                                                ; preds = %1
  store i1 false, ptr %2, align 1
  store i32 1, ptr %5, align 4
  br label %31

10:                                               ; preds = %1
  %11 = load ptr, ptr %3, align 8
  %12 = load ptr, ptr %4, align 8
  %13 = getelementptr inbounds nuw %struct.SDL_DriverWii_Context, ptr %12, i32 0, i32 0
  store ptr %11, ptr %13, align 8
  %14 = load ptr, ptr %4, align 8
  %15 = load ptr, ptr %3, align 8
  %16 = getelementptr inbounds nuw %struct.SDL_HIDAPI_Device, ptr %15, i32 0, i32 20
  store ptr %14, ptr %16, align 8
  %17 = load ptr, ptr %3, align 8
  %18 = getelementptr inbounds nuw %struct.SDL_HIDAPI_Device, ptr %17, i32 0, i32 4
  %19 = load i16, ptr %18, align 8
  %20 = zext i16 %19 to i32
  %21 = icmp eq i32 %20, 1406
  br i1 %21, label %22, label %28

22:                                               ; preds = %10
  %23 = load ptr, ptr %3, align 8
  %24 = call i32 @ReadExtensionControllerType(ptr noundef %23)
  %25 = load ptr, ptr %4, align 8
  %26 = getelementptr inbounds nuw %struct.SDL_DriverWii_Context, ptr %25, i32 0, i32 4
  store i32 %24, ptr %26, align 4
  %27 = load ptr, ptr %3, align 8
  call void @UpdateDeviceIdentity(ptr noundef %27)
  br label %28

28:                                               ; preds = %22, %10
  %29 = load ptr, ptr %3, align 8
  %30 = call zeroext i1 @HIDAPI_JoystickConnected(ptr noundef %29, ptr noundef null)
  store i1 %30, ptr %2, align 1
  store i32 1, ptr %5, align 4
  br label %31

31:                                               ; preds = %28, %9
  call void @llvm.lifetime.end.p0(i64 8, ptr %4) #6
  %32 = load i1, ptr %2, align 1
  ret i1 %32
}