; Function Attrs: nounwind uwtable
define internal zeroext i1 @HIDAPI_DriverWii_InitDevice(ptr noundef %0) #0 {
  %2 = alloca i16, align 2
  %3 = tail call noalias dereferenceable_or_null(152) ptr @SDL_calloc_REAL(i64 noundef 1, i64 noundef 152) #8
  %.not = icmp eq ptr %3, null
  br i1 %.not, label %42, label %4

4:                                                ; preds = %1
  store ptr %0, ptr %3, align 8
  %5 = getelementptr inbounds nuw i8, ptr %0, i64 112
  store ptr %3, ptr %5, align 8
  %6 = getelementptr inbounds nuw i8, ptr %0, i64 32
  %7 = load i16, ptr %6, align 8
  %8 = icmp eq i16 %7, 1406
  br i1 %8, label %.preheader, label %40

.preheader:                                       ; preds = %4, %29
  %.0165.i = phi i32 [ %30, %29 ], [ 0, %4 ]
  call void @llvm.lifetime.start.p0(i64 2, ptr nonnull %2) #7
  %9 = tail call fastcc noundef zeroext i1 @ReadRegister(ptr noundef nonnull %3, i32 noundef 10748158, i1 noundef zeroext true)
  br i1 %9, label %10, label %29

10:                                               ; preds = %.preheader
  %11 = call fastcc zeroext i1 @ParseExtensionIdentifyResponse(ptr noundef nonnull %3, ptr noundef %2)
  br i1 %11, label %12, label %29

12:                                               ; preds = %10
  %13 = load i16, ptr %2, align 2
  %14 = and i16 %13, -3841
  %15 = icmp eq i16 %14, 5
  %16 = icmp ugt i16 %13, 255
  %17 = and i1 %16, %15
  %18 = icmp eq i16 %13, -1
  %or.cond.i = or i1 %18, %17
  br i1 %or.cond.i, label %19, label %23

19:                                               ; preds = %12
  tail call fastcc void @WriteRegister(ptr noundef nonnull %3, i32 noundef 10748144, i8 85)
  tail call fastcc void @WriteRegister(ptr noundef nonnull %3, i32 noundef 10748155, i8 0)
  %20 = tail call fastcc noundef zeroext i1 @ReadRegister(ptr noundef nonnull %3, i32 noundef 10748158, i1 noundef zeroext true)
  br i1 %20, label %21, label %23

21:                                               ; preds = %19
  %22 = call fastcc zeroext i1 @ParseExtensionIdentifyResponse(ptr noundef nonnull %3, ptr noundef %2)
  %.pre.i = load i16, ptr %2, align 2
  br label %23

23:                                               ; preds = %21, %19, %12
  %24 = phi i16 [ %13, %19 ], [ %.pre.i, %21 ], [ %13, %12 ]
  switch i16 %24, label %28 [
    i16 11822, label %GetExtensionType.exit.i
    i16 0, label %25
    i16 257, label %26
    i16 288, label %27
  ]

25:                                               ; preds = %23
  br label %GetExtensionType.exit.i

26:                                               ; preds = %23
  br label %GetExtensionType.exit.i

27:                                               ; preds = %23
  br label %GetExtensionType.exit.i

28:                                               ; preds = %23
  br label %GetExtensionType.exit.i

GetExtensionType.exit.i:                          ; preds = %28, %27, %26, %25, %23
  %.0.i.i = phi i32 [ 0, %28 ], [ 131, %27 ], [ 130, %26 ], [ 129, %25 ], [ 128, %23 ]
  call void @llvm.lifetime.end.p0(i64 2, ptr nonnull %2) #7
  br label %ReadExtensionControllerType.exit

29:                                               ; preds = %10, %.preheader
  call void @llvm.lifetime.end.p0(i64 2, ptr nonnull %2) #7
  %30 = add nuw nsw i32 %.0165.i, 1
  %exitcond.not.i = icmp eq i32 %30, 20
  br i1 %exitcond.not.i, label %ReadExtensionControllerType.exit, label %.preheader, !llvm.loop !3

ReadExtensionControllerType.exit:                 ; preds = %29, %GetExtensionType.exit.i
  %.1.i = phi i32 [ %.0.i.i, %GetExtensionType.exit.i ], [ 0, %29 ]
  %31 = getelementptr inbounds nuw i8, ptr %3, i64 28
  store i32 %.1.i, ptr %31, align 4
  %32 = load ptr, ptr %5, align 8
  %33 = getelementptr inbounds nuw i8, ptr %32, i64 28
  %34 = load i32, ptr %33, align 4
  %switch.tableidx = add i32 %34, -128
  %35 = icmp ult i32 %switch.tableidx, 4
  br i1 %35, label %switch.lookup, label %UpdateDeviceIdentity.exit

switch.lookup:                                    ; preds = %ReadExtensionControllerType.exit
  %36 = zext nneg i32 %switch.tableidx to i64
  %switch.gep = getelementptr inbounds nuw [4 x ptr], ptr @switch.table.HIDAPI_DriverWii_InitDevice, i64 0, i64 %36
  %switch.load = load ptr, ptr %switch.gep, align 8
  br label %UpdateDeviceIdentity.exit

UpdateDeviceIdentity.exit:                        ; preds = %ReadExtensionControllerType.exit, %switch.lookup
  %.str.11.sink.i = phi ptr [ %switch.load, %switch.lookup ], [ @.str.11, %ReadExtensionControllerType.exit ]
  tail call void @HIDAPI_SetDeviceName(ptr noundef nonnull %0, ptr noundef nonnull %.str.11.sink.i) #7
  %37 = load i32, ptr %33, align 4
  %38 = trunc i32 %37 to i8
  %39 = getelementptr inbounds nuw i8, ptr %0, i64 63
  store i8 %38, ptr %39, align 1
  br label %40

40:                                               ; preds = %UpdateDeviceIdentity.exit, %4
  %41 = tail call zeroext i1 @HIDAPI_JoystickConnected(ptr noundef nonnull %0, ptr noundef null) #7
  br label %42

42:                                               ; preds = %1, %40
  %.0 = phi i1 [ %41, %40 ], [ false, %1 ]
  ret i1 %.0
}